	.cpu arm7tdmi
	.arch armv4t
	.fpu softvfp
	.eabi_attribute 20, 1
	.eabi_attribute 21, 1
	.eabi_attribute 23, 3
	.eabi_attribute 24, 1
	.eabi_attribute 25, 1
	.eabi_attribute 26, 1
	.eabi_attribute 30, 6
	.eabi_attribute 34, 0
	.eabi_attribute 18, 4
	.file	"sample.c"
	.text
.Ltext0:
	.cfi_sections	.debug_frame
	.file 1 "sample.c"
	.section	.rodata
	.align	2
.LC0:
	.ascii	"%d\012\000"
	.text
	.align	2
	.global	main
	.syntax unified
	.arm
	.type	main, %function
main:
.LFB3:
	.loc 1 5 1
	.cfi_startproc
	@ Function supports interworking.
	@ args = 0, pretend = 0, frame = 808
	@ frame_needed = 1, uses_anonymous_args = 0
	push	{fp, lr}
	.cfi_def_cfa_offset 8
	.cfi_offset 11, -8
	.cfi_offset 14, -4
	add	fp, sp, #4
	.cfi_def_cfa 11, 4
	sub	sp, sp, #808
	.loc 1 8 8
	mov	r3, #0
	str	r3, [fp, #-12]
	.loc 1 10 10
	mov	r3, #0
	str	r3, [fp, #-8]
	.loc 1 10 4
	b	.L2
.L3:
	.loc 1 11 14 discriminator 3
	bl	rand
	mov	r2, r0
	.loc 1 11 12 discriminator 3
	ldr	r3, [fp, #-8]
	lsl	r3, r3, #2
	sub	r3, r3, #4
	add	r3, r3, fp
	str	r2, [r3, #-808]
	.loc 1 10 22 discriminator 3
	ldr	r3, [fp, #-8]
	add	r3, r3, #1
	str	r3, [fp, #-8]
.L2:
	.loc 1 10 15 discriminator 1
	ldr	r3, [fp, #-8]
	cmp	r3, #199
	ble	.L3
	.loc 1 13 10
	mov	r3, #0
	str	r3, [fp, #-8]
	.loc 1 13 4
	b	.L4
.L5:
	.loc 1 14 20 discriminator 3
	ldr	r3, [fp, #-8]
	lsl	r3, r3, #2
	sub	r3, r3, #4
	add	r3, r3, fp
	ldr	r3, [r3, #-808]
	.loc 1 14 11 discriminator 3
	ldr	r2, [fp, #-12]
	add	r3, r2, r3
	str	r3, [fp, #-12]
	.loc 1 13 23 discriminator 3
	ldr	r3, [fp, #-8]
	add	r3, r3, #1
	str	r3, [fp, #-8]
.L4:
	.loc 1 13 15 discriminator 1
	ldr	r3, [fp, #-8]
	cmp	r3, #100
	ble	.L5
	.loc 1 16 4
	ldr	r1, [fp, #-12]
	ldr	r0, .L7
	bl	printf
	.loc 1 18 11
	mov	r3, #0
	.loc 1 19 1
	mov	r0, r3
	sub	sp, fp, #4
	.cfi_def_cfa 13, 8
	@ sp needed
	pop	{fp, lr}
	.cfi_restore 14
	.cfi_restore 11
	.cfi_def_cfa_offset 0
	bx	lr
.L8:
	.align	2
.L7:
	.word	.LC0
	.cfi_endproc
.LFE3:
	.size	main, .-main
.Letext0:
	.file 2 "/opt/arm-cross-toolchain/cross-tool-ubuntu22/arm-none-eabi/include/stdio.h"
	.file 3 "/opt/arm-cross-toolchain/cross-tool-ubuntu22/arm-none-eabi/include/stdlib.h"